; Function Attrs: mustprogress uwtable
define void @_ZN6casadi18DaeBuilderInternal20set_string_attributeENS_9AttributeERKNSt7__cxx1112basic_stringIcSt11char_traitsIcESaIcEEES9_(ptr noundef nonnull align 8 dereferenceable(1017) %0, i32 noundef %1, ptr noundef nonnull align 8 dereferenceable(32) %2, ptr noundef nonnull align 8 dereferenceable(32) %3) local_unnamed_addr #4 align 2 {
  %5 = tail call noundef i64 @_ZNK6casadi18DaeBuilderInternal4findERKNSt7__cxx1112basic_stringIcSt11char_traitsIcESaIcEEE(ptr noundef nonnull align 8 dereferenceable(1017) %0, ptr noundef nonnull align 8 dereferenceable(32) %2)
  %6 = getelementptr inbounds nuw i8, ptr %0, i64 552
  %7 = getelementptr inbounds nuw i8, ptr %0, i64 560
  %8 = load ptr, ptr %7, align 8, !tbaa !145
  %9 = load ptr, ptr %6, align 8, !tbaa !148
  %10 = ptrtoint ptr %8 to i64
  %11 = ptrtoint ptr %9 to i64
  %12 = sub i64 %10, %11
  %13 = ashr exact i64 %12, 3
  %.not.i.i.i.i = icmp ult i64 %5, %13
  br i1 %.not.i.i.i.i, label %_ZN6casadi18DaeBuilderInternal8variableERKNSt7__cxx1112basic_stringIcSt11char_traitsIcESaIcEEE.exit, label %14

14:                                               ; preds = %4
  tail call void (ptr, ...) @_ZSt24__throw_out_of_range_fmtPKcz(ptr noundef nonnull @.str.690, i64 noundef %5, i64 noundef %13) #29
  unreachable

_ZN6casadi18DaeBuilderInternal8variableERKNSt7__cxx1112basic_stringIcSt11char_traitsIcESaIcEEE.exit: ; preds = %4
  %cond.i = icmp eq i32 %1, 5
  br i1 %cond.i, label %15, label %_ZN6casadi8Variable13set_attributeENS_9AttributeERKNSt7__cxx1112basic_stringIcSt11char_traitsIcESaIcEEE.exit

15:                                               ; preds = %_ZN6casadi18DaeBuilderInternal8variableERKNSt7__cxx1112basic_stringIcSt11char_traitsIcESaIcEEE.exit
  %16 = getelementptr inbounds nuw ptr, ptr %9, i64 %5
  %17 = load ptr, ptr %16, align 8, !tbaa !149
  %18 = getelementptr inbounds nuw i8, ptr %17, i64 296
  tail call void @_ZNSt7__cxx1112basic_stringIcSt11char_traitsIcESaIcEE9_M_assignERKS4_(ptr noundef nonnull align 8 dereferenceable(32) %18, ptr noundef nonnull align 8 dereferenceable(32) %3)
  br label %_ZN6casadi8Variable13set_attributeENS_9AttributeERKNSt7__cxx1112basic_stringIcSt11char_traitsIcESaIcEEE.exit

_ZN6casadi8Variable13set_attributeENS_9AttributeERKNSt7__cxx1112basic_stringIcSt11char_traitsIcESaIcEEE.exit: ; preds = %_ZN6casadi18DaeBuilderInternal8variableERKNSt7__cxx1112basic_stringIcSt11char_traitsIcESaIcEEE.exit, %15
  ret void
}